target datalayout = "e-m:e-p270:32:32-p271:32:32-p272:64:64-i64:64-i128:128-f80:128-n8:16:32:64-S128"
target triple = "x86_64-pc-linux-gnu"

%struct._zval_struct = type { %union._zend_value, %union.anon, %union.anon.2 }
%union._zend_value = type { i64 }
%union.anon = type { i32 }
%union.anon.2 = type { i32 }
%struct._zend_array = type { %struct._zend_refcounted_h, %union.anon.4, i32, %union.anon.6, i32, i32, i32, i32, i64, ptr }
%struct._zend_refcounted_h = type { i32, %union.anon.3 }
%union.anon.3 = type { i32 }
%union.anon.4 = type { i32 }
%union.anon.6 = type { ptr }
%struct._php_libxml_func_handler = type { ptr }
%struct._zend_class_entry = type { i8, ptr, %union.anon.7, i32, i32, i32, i32, ptr, ptr, ptr, %struct._zend_array, %struct._zend_array, %struct._zend_array, ptr, ptr, ptr, ptr, ptr, ptr, ptr, ptr, ptr, ptr, ptr, ptr, ptr, ptr, ptr, ptr, ptr, ptr, ptr, %union.anon.8, ptr, ptr, ptr, ptr, i32, i32, %union.anon.9, ptr, ptr, ptr, ptr, i32, ptr, ptr, %union.anon.10 }
%union.anon.7 = type { ptr }
%union.anon.8 = type { ptr }
%union.anon.9 = type { ptr }
%union.anon.10 = type { %struct.anon.11 }
%struct.anon.11 = type { ptr, i32, i32 }
%struct._zend_object = type { %struct._zend_refcounted_h, i32, ptr, ptr, ptr, [1 x %struct._zval_struct] }

@php_libxml_exports = internal global %struct._zend_array zeroinitializer, align 8

; Function Attrs: nounwind uwtable
define ptr @php_libxml_import_node(ptr noundef %0) #0 {
  %2 = alloca ptr, align 8
  %3 = alloca ptr, align 8
  %4 = alloca ptr, align 8
  %5 = alloca ptr, align 8
  %6 = alloca ptr, align 8
  %7 = alloca ptr, align 8
  %8 = alloca ptr, align 8
  %9 = alloca ptr, align 8
  %10 = alloca ptr, align 8
  store ptr %0, ptr %7, align 8
  store ptr null, ptr %8, align 8
  store ptr null, ptr %9, align 8
  %11 = load ptr, ptr %7, align 8
  store ptr %11, ptr %6, align 8
  %12 = load ptr, ptr %6, align 8
  %13 = getelementptr inbounds %struct._zval_struct, ptr %12, i32 0, i32 1
  %14 = load i8, ptr %13, align 8
  %15 = zext i8 %14 to i32
  %16 = icmp eq i32 %15, 8
  br i1 %16, label %17, label %58

17:                                               ; preds = %1
  %18 = load ptr, ptr %7, align 8
  %19 = getelementptr inbounds %struct._zval_struct, ptr %18, i32 0, i32 0
  %20 = load ptr, ptr %19, align 8
  %21 = getelementptr inbounds %struct._zend_object, ptr %20, i32 0, i32 2
  %22 = load ptr, ptr %21, align 8
  store ptr %22, ptr %8, align 8
  br label %23

23:                                               ; preds = %28, %17
  %24 = load ptr, ptr %8, align 8
  %25 = getelementptr inbounds %struct._zend_class_entry, ptr %24, i32 0, i32 2
  %26 = load ptr, ptr %25, align 8
  %27 = icmp ne ptr %26, null
  br i1 %27, label %28, label %32

28:                                               ; preds = %23
  %29 = load ptr, ptr %8, align 8
  %30 = getelementptr inbounds %struct._zend_class_entry, ptr %29, i32 0, i32 2
  %31 = load ptr, ptr %30, align 8
  store ptr %31, ptr %8, align 8
  br label %23

32:                                               ; preds = %23
  %33 = load ptr, ptr %8, align 8
  %34 = getelementptr inbounds %struct._zend_class_entry, ptr %33, i32 0, i32 1
  %35 = load ptr, ptr %34, align 8
  store ptr @php_libxml_exports, ptr %3, align 8
  store ptr %35, ptr %4, align 8
  %36 = load ptr, ptr %3, align 8
  %37 = load ptr, ptr %4, align 8
  %38 = call ptr @zend_hash_find(ptr noundef %36, ptr noundef %37) #11
  store ptr %38, ptr %5, align 8
  %39 = load ptr, ptr %5, align 8
  %40 = icmp ne ptr %39, null
  br i1 %40, label %41, label %47

41:                                               ; preds = %32
  %42 = load ptr, ptr %5, align 8
  %43 = load ptr, ptr %42, align 8
  %44 = icmp ne ptr %43, null
  call void @llvm.assume(i1 %44)
  %45 = load ptr, ptr %5, align 8
  %46 = load ptr, ptr %45, align 8
  store ptr %46, ptr %2, align 8
  br label %48

47:                                               ; preds = %32
  store ptr null, ptr %2, align 8
  br label %48

48:                                               ; preds = %47, %41
  %49 = load ptr, ptr %2, align 8
  store ptr %49, ptr %10, align 8
  %50 = icmp ne ptr %49, null
  br i1 %50, label %51, label %57

51:                                               ; preds = %48
  %52 = load ptr, ptr %10, align 8
  %53 = getelementptr inbounds %struct._php_libxml_func_handler, ptr %52, i32 0, i32 0
  %54 = load ptr, ptr %53, align 8
  %55 = load ptr, ptr %7, align 8
  %56 = call ptr %54(ptr noundef %55)
  store ptr %56, ptr %9, align 8
  br label %57

57:                                               ; preds = %51, %48
  br label %58

58:                                               ; preds = %57, %1
  %59 = load ptr, ptr %9, align 8
  ret ptr %59
}