; Function Attrs: nounwind uwtable
define ptr @php_libxml_import_node(ptr noundef %0) local_unnamed_addr #0 {
  %2 = getelementptr inbounds i8, ptr %0, i64 8
  %3 = load i8, ptr %2, align 8
  %4 = icmp eq i8 %3, 8
  br i1 %4, label %5, label %.thread

5:                                                ; preds = %1
  %6 = load ptr, ptr %0, align 8
  %7 = getelementptr inbounds i8, ptr %6, i64 16
  %8 = load ptr, ptr %7, align 8
  br label %9

9:                                                ; preds = %9, %5
  %.016 = phi ptr [ %8, %5 ], [ %11, %9 ]
  %10 = getelementptr inbounds i8, ptr %.016, i64 16
  %11 = load ptr, ptr %10, align 8
  %.not = icmp eq ptr %11, null
  br i1 %.not, label %12, label %9

12:                                               ; preds = %9
  %13 = getelementptr inbounds i8, ptr %.016, i64 8
  %14 = load ptr, ptr %13, align 8
  %15 = tail call ptr @zend_hash_find(ptr noundef nonnull @php_libxml_exports, ptr noundef %14) #17
  %.not19 = icmp eq ptr %15, null
  br i1 %.not19, label %.thread, label %16

16:                                               ; preds = %12
  %17 = load ptr, ptr %15, align 8, !nonnull !4, !noundef !4
  %18 = load ptr, ptr %17, align 8
  %19 = tail call ptr %18(ptr noundef nonnull %0) #17
  br label %.thread

.thread:                                          ; preds = %12, %16, %1
  %.015 = phi ptr [ %19, %16 ], [ null, %1 ], [ null, %12 ]
  ret ptr %.015
}